; Function Attrs: mustprogress uwtable
define void @parquet_init(ptr noundef nonnull align 8 dereferenceable(1912) %0) local_unnamed_addr #3 personality ptr @__gxx_personality_v0 {
  %2 = alloca %"class.duckdb::ParquetExtension", align 8
  %3 = alloca %"class.duckdb::DuckDB", align 8
  call void @llvm.lifetime.start.p0(i64 16, ptr nonnull %3) #27
  call void @_ZN6duckdb6DuckDBC1ERNS_16DatabaseInstanceE(ptr noundef nonnull align 8 dereferenceable(16) %3, ptr noundef nonnull align 8 dereferenceable(1912) %0)
  call void @llvm.lifetime.start.p0(i64 8, ptr nonnull %2) #27
  store ptr getelementptr inbounds nuw inrange(-16, 40) (i8, ptr @_ZTVN6duckdb16ParquetExtensionE, i64 16), ptr %2, align 8, !tbaa !133
  invoke void @_ZN6duckdb16ParquetExtension4LoadERNS_6DuckDBE(ptr nonnull align 8 poison, ptr noundef nonnull align 8 dereferenceable(16) %3)
          to label %5 unwind label %.body

.body:                                            ; preds = %1
  %4 = landingpad { ptr, i32 }
          cleanup
  call void @_ZN6duckdb9ExtensionD2Ev(ptr noundef nonnull align 8 dereferenceable(8) %2) #27
  call void @llvm.lifetime.end.p0(i64 8, ptr nonnull %2) #27
  call void @_ZN6duckdb6DuckDBD1Ev(ptr noundef nonnull align 8 dereferenceable(16) %3) #27
  call void @llvm.lifetime.end.p0(i64 16, ptr nonnull %3) #27
  resume { ptr, i32 } %4

5:                                                ; preds = %1
  call void @_ZN6duckdb9ExtensionD2Ev(ptr noundef nonnull align 8 dereferenceable(8) %2) #27
  call void @llvm.lifetime.end.p0(i64 8, ptr nonnull %2) #27
  call void @_ZN6duckdb6DuckDBD1Ev(ptr noundef nonnull align 8 dereferenceable(16) %3) #27
  call void @llvm.lifetime.end.p0(i64 16, ptr nonnull %3) #27
  ret void
}